; Function Attrs: mustprogress uwtable
define dso_local void @_ZNSt13runtime_errorC2EPKc(ptr noundef nonnull align 8 dereferenceable(16) initializes((0, 8)) %0, ptr noundef readonly captures(none) %1) unnamed_addr #0 align 2 personality ptr @__gxx_personality_v0 {
  store ptr getelementptr inbounds nuw inrange(-16, 24) (i8, ptr @_ZTVSt13runtime_error, i64 16), ptr %0, align 8, !tbaa !4
  %3 = tail call i64 @strlen(ptr noundef nonnull dereferenceable(1) %1) #10
  %4 = add i64 %3, 25
  %5 = invoke noalias noundef nonnull ptr @_Znwm(i64 noundef %4) #11
          to label %6 unwind label %12

6:                                                ; preds = %2
  %7 = getelementptr inbounds nuw i8, ptr %0, i64 8
  store i64 %3, ptr %5, align 8, !tbaa !7
  %8 = getelementptr inbounds nuw i8, ptr %5, i64 8
  store i64 %3, ptr %8, align 8, !tbaa !12
  %9 = getelementptr inbounds nuw i8, ptr %5, i64 16
  store i32 0, ptr %9, align 8, !tbaa !13
  %10 = getelementptr inbounds nuw i8, ptr %5, i64 24
  %11 = add i64 %3, 1
  tail call void @llvm.memcpy.p0.p0.i64(ptr nonnull align 1 %10, ptr nonnull align 1 %1, i64 %11, i1 false)
  store ptr %10, ptr %7, align 8, !tbaa !14
  ret void

12:                                               ; preds = %2
  %13 = landingpad { ptr, i32 }
          cleanup
  tail call void @_ZNSt9exceptionD2Ev(ptr noundef nonnull align 8 dereferenceable(8) %0) #12
  resume { ptr, i32 } %13
}